; Function Attrs: nofree norecurse nosync nounwind memory(readwrite, inaccessiblemem: none) uwtable
define void @Gia_ManSetPhase1(ptr noundef readonly captures(none) %0) local_unnamed_addr #1 {
  %2 = getelementptr i8, ptr %0, i64 32
  %3 = getelementptr inbounds nuw i8, ptr %0, i64 64
  %4 = load ptr, ptr %3, align 8
  %5 = getelementptr i8, ptr %4, i64 4
  %.val2023 = load i32, ptr %5, align 4
  %6 = icmp sgt i32 %.val2023, 0
  br i1 %6, label %.lr.ph, label %.critedge

.lr.ph:                                           ; preds = %1, %8
  %indvars.iv = phi i64 [ %indvars.iv.next, %8 ], [ 0, %1 ]
  %7 = phi ptr [ %16, %8 ], [ %4, %1 ]
  %.val21 = load ptr, ptr %2, align 8
  %.not = icmp eq ptr %.val21, null
  br i1 %.not, label %.critedge, label %8

8:                                                ; preds = %.lr.ph
  %9 = getelementptr i8, ptr %7, i64 8
  %.val22.val = load ptr, ptr %9, align 8
  %10 = getelementptr inbounds nuw i32, ptr %.val22.val, i64 %indvars.iv
  %11 = load i32, ptr %10, align 4
  %12 = sext i32 %11 to i64
  %13 = getelementptr inbounds %struct.Gia_Obj_t_, ptr %.val21, i64 %12
  %14 = load i64, ptr %13, align 4
  %15 = or i64 %14, -9223372036854775808
  store i64 %15, ptr %13, align 4
  %indvars.iv.next = add nuw nsw i64 %indvars.iv, 1
  %16 = load ptr, ptr %3, align 8
  %17 = getelementptr i8, ptr %16, i64 4
  %.val20 = load i32, ptr %17, align 4
  %18 = sext i32 %.val20 to i64
  %19 = icmp slt i64 %indvars.iv.next, %18
  br i1 %19, label %.lr.ph, label %.critedge, !llvm.loop !17

.critedge:                                        ; preds = %.lr.ph, %8, %1
  %20 = getelementptr inbounds nuw i8, ptr %0, i64 24
  %21 = load i32, ptr %20, align 8
  %22 = icmp sgt i32 %21, 0
  br i1 %22, label %.lr.ph27, label %.critedge2

.lr.ph27:                                         ; preds = %.critedge, %28
  %23 = phi i32 [ %29, %28 ], [ %21, %.critedge ]
  %indvars.iv30 = phi i64 [ %indvars.iv.next31, %28 ], [ 0, %.critedge ]
  %.val = load ptr, ptr %2, align 8
  %24 = getelementptr inbounds nuw %struct.Gia_Obj_t_, ptr %.val, i64 %indvars.iv30
  %.not17 = icmp eq ptr %.val, null
  br i1 %.not17, label %.critedge2, label %25

25:                                               ; preds = %.lr.ph27
  %.val19 = load i64, ptr %24, align 4
  %26 = and i64 %.val19, 2684354559
  %narrow.i.not = icmp eq i64 %26, 2684354559
  br i1 %narrow.i.not, label %28, label %27

27:                                               ; preds = %25
  tail call void @Gia_ObjSetPhase(ptr noundef nonnull %0, ptr noundef nonnull %24)
  %.pre = load i32, ptr %20, align 8
  br label %28

28:                                               ; preds = %25, %27
  %29 = phi i32 [ %23, %25 ], [ %.pre, %27 ]
  %indvars.iv.next31 = add nuw nsw i64 %indvars.iv30, 1
  %30 = sext i32 %29 to i64
  %31 = icmp slt i64 %indvars.iv.next31, %30
  br i1 %31, label %.lr.ph27, label %.critedge2, !llvm.loop !18

.critedge2:                                       ; preds = %.lr.ph27, %28, %.critedge
  ret void
}